; Function Attrs: mustprogress uwtable
define noundef i64 @_ZN3net10SpdyFramer35GetNumberRequiredContinuationFramesEm(ptr noundef nonnull readonly align 8 captures(none) dereferenceable(259) %0, i64 noundef %1) local_unnamed_addr #0 align 2 personality ptr @__gxx_personality_v0 {
  %3 = getelementptr inbounds nuw i8, ptr %0, i64 248
  %4 = load i32, ptr %3, align 8, !tbaa !82
  %5 = tail call noundef i64 @_ZN3net13SpdyConstants18GetFrameHeaderSizeENS_16SpdyMajorVersionE(i32 noundef %4)
  %6 = sub i64 16383, %5
  %7 = add i64 %1, -16384
  %8 = udiv i64 %7, %6
  %9 = add i64 %8, 1
  ret i64 %9
}